target datalayout = "e-m:e-p270:32:32-p271:32:32-p272:64:64-i64:64-i128:128-f80:128-n8:16:32:64-S128"
target triple = "x86_64-pc-linux-gnu"

%"class.llvm::SmallVectorImpl.6" = type { %"class.llvm::SmallVectorTemplateBase.7" }
%"class.llvm::SmallVectorTemplateBase.7" = type { %"class.llvm::SmallVectorTemplateCommon.8" }
%"class.llvm::SmallVectorTemplateCommon.8" = type { %"class.llvm::SmallVectorBase" }
%"class.llvm::SmallVectorBase" = type { ptr, i32, i32 }
%"class.llvm::DIBuilder" = type { ptr, ptr, ptr, ptr, ptr, ptr, ptr, %"class.llvm::SmallVector", %"class.llvm::SmallVector", %"class.llvm::SmallVector.0", %"class.llvm::SmallVector.5", %"class.llvm::SmallVector", %"class.llvm::MapVector", %"class.llvm::SmallVector", i8, [7 x i8], %"class.llvm::DenseMap.15" }
%"class.llvm::SmallVector.0" = type { %"class.llvm::SmallVectorImpl.1", %"struct.llvm::SmallVectorStorage.4" }
%"class.llvm::SmallVectorImpl.1" = type { %"class.llvm::SmallVectorTemplateBase.2" }
%"class.llvm::SmallVectorTemplateBase.2" = type { %"class.llvm::SmallVectorTemplateCommon.3" }
%"class.llvm::SmallVectorTemplateCommon.3" = type { %"class.llvm::SmallVectorBase" }
%"struct.llvm::SmallVectorStorage.4" = type { [32 x i8] }
%"class.llvm::SmallVector.5" = type { %"class.llvm::SmallVectorImpl.6", %"struct.llvm::SmallVectorStorage.9" }
%"struct.llvm::SmallVectorStorage.9" = type { [32 x i8] }
%"class.llvm::MapVector" = type { %"class.llvm::DenseMap", %"class.llvm::SmallVector.10" }
%"class.llvm::DenseMap" = type <{ ptr, i32, i32, i32, [4 x i8] }>
%"class.llvm::SmallVector.10" = type { %"class.llvm::SmallVectorImpl.11" }
%"class.llvm::SmallVectorImpl.11" = type { %"class.llvm::SmallVectorTemplateBase.12" }
%"class.llvm::SmallVectorTemplateBase.12" = type { %"class.llvm::SmallVectorTemplateCommon.13" }
%"class.llvm::SmallVectorTemplateCommon.13" = type { %"class.llvm::SmallVectorBase" }
%"class.llvm::SmallVector" = type { %"class.llvm::SmallVectorImpl", %"struct.llvm::SmallVectorStorage" }
%"class.llvm::SmallVectorImpl" = type { %"class.llvm::SmallVectorTemplateBase" }
%"class.llvm::SmallVectorTemplateBase" = type { %"class.llvm::SmallVectorTemplateCommon" }
%"class.llvm::SmallVectorTemplateCommon" = type { %"class.llvm::SmallVectorBase" }
%"struct.llvm::SmallVectorStorage" = type { [32 x i8] }
%"class.llvm::DenseMap.15" = type <{ ptr, i32, i32, i32, [4 x i8] }>
%"class.llvm::MDTupleTypedArrayWrapper.117" = type { ptr }
%"class.llvm::StringRef" = type { ptr, i64 }

; Function Attrs: mustprogress nounwind uwtable
define linkonce_odr hidden noundef zeroext i1 @_ZNK4llvm9StringRef5emptyEv(ptr noundef nonnull align 8 dereferenceable(16) %0) #0 comdat align 2 {
  %2 = alloca ptr, align 8
  store ptr %0, ptr %2, align 8
  %3 = load ptr, ptr %2, align 8
  %4 = getelementptr inbounds nuw %"class.llvm::StringRef", ptr %3, i32 0, i32 1
  %5 = load i64, ptr %4, align 8
  %6 = icmp eq i64 %5, 0
  ret i1 %6
}

; Function Attrs: mustprogress nounwind uwtable
define linkonce_odr hidden noundef ptr @_ZNK4llvm24MDTupleTypedArrayWrapperINS_6DINodeEE3getEv(ptr noundef nonnull align 8 dereferenceable(8) %0) #0 comdat align 2 {
  %2 = alloca ptr, align 8
  store ptr %0, ptr %2, align 8
  %3 = load ptr, ptr %2, align 8
  %4 = getelementptr inbounds nuw %"class.llvm::MDTupleTypedArrayWrapper.117", ptr %3, i32 0, i32 0
  %5 = load ptr, ptr %4, align 8
  ret ptr %5
}

; Function Attrs: mustprogress nounwind uwtable
define linkonce_odr hidden noundef ptr @_ZN4llvm6DINode20getCanonicalMDStringERNS_11LLVMContextENS_9StringRefE(ptr noundef nonnull align 8 dereferenceable(8) %0, ptr %1, i64 %2) #0 comdat align 2 {
  %4 = alloca ptr, align 8
  %5 = alloca %"class.llvm::StringRef", align 8
  %6 = alloca ptr, align 8
  %7 = alloca %"class.llvm::StringRef", align 8
  %8 = getelementptr inbounds nuw { ptr, i64 }, ptr %5, i32 0, i32 0
  store ptr %1, ptr %8, align 8
  %9 = getelementptr inbounds nuw { ptr, i64 }, ptr %5, i32 0, i32 1
  store i64 %2, ptr %9, align 8
  store ptr %0, ptr %6, align 8
  %10 = call noundef zeroext i1 @_ZNK4llvm9StringRef5emptyEv(ptr noundef nonnull align 8 dereferenceable(16) %5)
  br i1 %10, label %11, label %12

11:                                               ; preds = %3
  store ptr null, ptr %4, align 8
  br label %19

12:                                               ; preds = %3
  %13 = load ptr, ptr %6, align 8
  call void @llvm.memcpy.p0.p0.i64(ptr align 8 %7, ptr align 8 %5, i64 16, i1 false)
  %14 = getelementptr inbounds nuw { ptr, i64 }, ptr %7, i32 0, i32 0
  %15 = load ptr, ptr %14, align 8
  %16 = getelementptr inbounds nuw { ptr, i64 }, ptr %7, i32 0, i32 1
  %17 = load i64, ptr %16, align 8
  %18 = call noundef ptr @_ZN4llvm8MDString3getERNS_11LLVMContextENS_9StringRefE(ptr noundef nonnull align 8 dereferenceable(8) %13, ptr %15, i64 %17)
  store ptr %18, ptr %4, align 8
  br label %19

19:                                               ; preds = %12, %11
  %20 = load ptr, ptr %4, align 8
  ret ptr %20
}

; Function Attrs: mustprogress nounwind uwtable
define linkonce_odr hidden noundef ptr @_ZN4llvm16cast_convert_valINS_12DILocalScopeEPNS_7DIScopeES3_E4doitEPKS2_(ptr noundef %0) #0 comdat align 2 {
  %2 = alloca ptr, align 8
  store ptr %0, ptr %2, align 8
  %3 = load ptr, ptr %2, align 8
  ret ptr %3
}

; Function Attrs: mustprogress nounwind uwtable
define linkonce_odr hidden noundef ptr @_ZN4llvm15DILocalVariable7getImplERNS_11LLVMContextEPNS_7DIScopeENS_9StringRefEPNS_6DIFileEjPNS_6DITypeEjNS_6DINode7DIFlagsEjNS_24MDTupleTypedArrayWrapperISA_EENS_8Metadata11StorageTypeEb(ptr noundef nonnull align 8 dereferenceable(8) %0, ptr noundef %1, ptr %2, i64 %3, ptr noundef %4, i32 noundef %5, ptr noundef %6, i32 noundef %7, i32 noundef %8, i32 noundef %9, i64 %10, i32 noundef %11, i1 noundef zeroext %12) #0 comdat align 2 {
  %14 = alloca %"class.llvm::StringRef", align 8
  %15 = alloca %"class.llvm::MDTupleTypedArrayWrapper.117", align 8
  %16 = alloca ptr, align 8
  %17 = alloca ptr, align 8
  %18 = alloca ptr, align 8
  %19 = alloca i32, align 4
  %20 = alloca ptr, align 8
  %21 = alloca i32, align 4
  %22 = alloca i32, align 4
  %23 = alloca i32, align 4
  %24 = alloca i32, align 4
  %25 = alloca i8, align 1
  %26 = alloca %"class.llvm::StringRef", align 8
  %27 = getelementptr inbounds nuw { ptr, i64 }, ptr %14, i32 0, i32 0
  store ptr %2, ptr %27, align 8
  %28 = getelementptr inbounds nuw { ptr, i64 }, ptr %14, i32 0, i32 1
  store i64 %3, ptr %28, align 8
  %29 = getelementptr inbounds nuw %"class.llvm::MDTupleTypedArrayWrapper.117", ptr %15, i32 0, i32 0
  %30 = inttoptr i64 %10 to ptr
  store ptr %30, ptr %29, align 8
  store ptr %0, ptr %16, align 8
  store ptr %1, ptr %17, align 8
  store ptr %4, ptr %18, align 8
  store i32 %5, ptr %19, align 4
  store ptr %6, ptr %20, align 8
  store i32 %7, ptr %21, align 4
  store i32 %8, ptr %22, align 4
  store i32 %9, ptr %23, align 4
  store i32 %11, ptr %24, align 4
  %31 = zext i1 %12 to i8
  store i8 %31, ptr %25, align 1
  %32 = load ptr, ptr %16, align 8
  %33 = load ptr, ptr %17, align 8
  %34 = load ptr, ptr %16, align 8
  call void @llvm.memcpy.p0.p0.i64(ptr align 8 %26, ptr align 8 %14, i64 16, i1 false)
  %35 = getelementptr inbounds nuw { ptr, i64 }, ptr %26, i32 0, i32 0
  %36 = load ptr, ptr %35, align 8
  %37 = getelementptr inbounds nuw { ptr, i64 }, ptr %26, i32 0, i32 1
  %38 = load i64, ptr %37, align 8
  %39 = call noundef ptr @_ZN4llvm6DINode20getCanonicalMDStringERNS_11LLVMContextENS_9StringRefE(ptr noundef nonnull align 8 dereferenceable(8) %34, ptr %36, i64 %38)
  %40 = load ptr, ptr %18, align 8
  %41 = load i32, ptr %19, align 4
  %42 = load ptr, ptr %20, align 8
  %43 = load i32, ptr %21, align 4
  %44 = load i32, ptr %22, align 4
  %45 = load i32, ptr %23, align 4
  %46 = call noundef ptr @_ZNK4llvm24MDTupleTypedArrayWrapperINS_6DINodeEE3getEv(ptr noundef nonnull align 8 dereferenceable(8) %15)
  %47 = load i32, ptr %24, align 4
  %48 = load i8, ptr %25, align 1
  %49 = trunc i8 %48 to i1
  %50 = call noundef ptr @_ZN4llvm15DILocalVariable7getImplERNS_11LLVMContextEPNS_8MetadataEPNS_8MDStringES4_jS4_jNS_6DINode7DIFlagsEjS4_NS3_11StorageTypeEb(ptr noundef nonnull align 8 dereferenceable(8) %32, ptr noundef %33, ptr noundef %39, ptr noundef %40, i32 noundef %41, ptr noundef %42, i32 noundef %43, i32 noundef %44, i32 noundef %45, ptr noundef %46, i32 noundef %47, i1 noundef zeroext %49)
  ret ptr %50
}

; Function Attrs: mustprogress nounwind uwtable
define linkonce_odr hidden noundef ptr @_ZN4llvm8CastInfoINS_12DILocalScopeEPNS_7DIScopeEvE6doCastERKS3_(ptr noundef nonnull align 8 dereferenceable(8) %0) #0 comdat align 2 {
  %2 = alloca ptr, align 8
  store ptr %0, ptr %2, align 8
  %3 = load ptr, ptr %2, align 8
  %4 = load ptr, ptr %3, align 8
  %5 = call noundef ptr @_ZN4llvm16cast_convert_valINS_12DILocalScopeEPNS_7DIScopeES3_E4doitEPKS2_(ptr noundef %4)
  ret ptr %5
}

; Function Attrs: mustprogress nounwind uwtable
define linkonce_odr hidden noundef ptr @_ZN4llvm15DILocalVariable3getERNS_11LLVMContextEPNS_12DILocalScopeENS_9StringRefEPNS_6DIFileEjPNS_6DITypeEjNS_6DINode7DIFlagsEjNS_24MDTupleTypedArrayWrapperISA_EE(ptr noundef nonnull align 8 dereferenceable(8) %0, ptr noundef %1, ptr %2, i64 %3, ptr noundef %4, i32 noundef %5, ptr noundef %6, i32 noundef %7, i32 noundef %8, i32 noundef %9, i64 %10) #0 comdat align 2 {
  %12 = alloca %"class.llvm::StringRef", align 8
  %13 = alloca %"class.llvm::MDTupleTypedArrayWrapper.117", align 8
  %14 = alloca ptr, align 8
  %15 = alloca ptr, align 8
  %16 = alloca ptr, align 8
  %17 = alloca i32, align 4
  %18 = alloca ptr, align 8
  %19 = alloca i32, align 4
  %20 = alloca i32, align 4
  %21 = alloca i32, align 4
  %22 = alloca %"class.llvm::StringRef", align 8
  %23 = alloca %"class.llvm::MDTupleTypedArrayWrapper.117", align 8
  %24 = getelementptr inbounds nuw { ptr, i64 }, ptr %12, i32 0, i32 0
  store ptr %2, ptr %24, align 8
  %25 = getelementptr inbounds nuw { ptr, i64 }, ptr %12, i32 0, i32 1
  store i64 %3, ptr %25, align 8
  %26 = getelementptr inbounds nuw %"class.llvm::MDTupleTypedArrayWrapper.117", ptr %13, i32 0, i32 0
  %27 = inttoptr i64 %10 to ptr
  store ptr %27, ptr %26, align 8
  store ptr %0, ptr %14, align 8
  store ptr %1, ptr %15, align 8
  store ptr %4, ptr %16, align 8
  store i32 %5, ptr %17, align 4
  store ptr %6, ptr %18, align 8
  store i32 %7, ptr %19, align 4
  store i32 %8, ptr %20, align 4
  store i32 %9, ptr %21, align 4
  %28 = load ptr, ptr %14, align 8
  %29 = load ptr, ptr %15, align 8
  call void @llvm.memcpy.p0.p0.i64(ptr align 8 %22, ptr align 8 %12, i64 16, i1 false)
  %30 = load ptr, ptr %16, align 8
  %31 = load i32, ptr %17, align 4
  %32 = load ptr, ptr %18, align 8
  %33 = load i32, ptr %19, align 4
  %34 = load i32, ptr %20, align 4
  %35 = load i32, ptr %21, align 4
  call void @llvm.memcpy.p0.p0.i64(ptr align 8 %23, ptr align 8 %13, i64 8, i1 false)
  %36 = getelementptr inbounds nuw { ptr, i64 }, ptr %22, i32 0, i32 0
  %37 = load ptr, ptr %36, align 8
  %38 = getelementptr inbounds nuw { ptr, i64 }, ptr %22, i32 0, i32 1
  %39 = load i64, ptr %38, align 8
  %40 = getelementptr inbounds nuw %"class.llvm::MDTupleTypedArrayWrapper.117", ptr %23, i32 0, i32 0
  %41 = load ptr, ptr %40, align 8
  %42 = ptrtoint ptr %41 to i64
  %43 = call noundef ptr @_ZN4llvm15DILocalVariable7getImplERNS_11LLVMContextEPNS_7DIScopeENS_9StringRefEPNS_6DIFileEjPNS_6DITypeEjNS_6DINode7DIFlagsEjNS_24MDTupleTypedArrayWrapperISA_EENS_8Metadata11StorageTypeEb(ptr noundef nonnull align 8 dereferenceable(8) %28, ptr noundef %29, ptr %37, i64 %39, ptr noundef %30, i32 noundef %31, ptr noundef %32, i32 noundef %33, i32 noundef %34, i32 noundef %35, i64 %42, i32 noundef 0, i1 noundef zeroext true)
  ret ptr %43
}

; Function Attrs: mustprogress nounwind uwtable
define linkonce_odr hidden noundef ptr @_ZN4llvm4castINS_12DILocalScopeENS_7DIScopeEEEDcPT0_(ptr noundef %0) #0 comdat {
  %2 = alloca ptr, align 8
  store ptr %0, ptr %2, align 8
  %3 = call noundef ptr @_ZN4llvm8CastInfoINS_12DILocalScopeEPNS_7DIScopeEvE6doCastERKS3_(ptr noundef nonnull align 8 dereferenceable(8) %2)
  ret ptr %3
}

; Function Attrs: mustprogress nounwind uwtable
define internal noundef ptr @_ZL19createLocalVariableRN4llvm11LLVMContextERNS_15SmallVectorImplINS_18TypedTrackingMDRefINS_6MDNodeEEEEEPNS_7DIScopeENS_9StringRefEjPNS_6DIFileEjPNS_6DITypeEbNS_6DINode7DIFlagsEjNS_24MDTupleTypedArrayWrapperISF_EE(ptr noundef nonnull align 8 dereferenceable(8) %0, ptr noundef nonnull align 8 dereferenceable(16) %1, ptr noundef %2, ptr %3, i64 %4, i32 noundef %5, ptr noundef %6, i32 noundef %7, ptr noundef %8, i1 noundef zeroext %9, i32 noundef %10, i32 noundef %11, i64 %12) #0 {
  %14 = alloca %"class.llvm::StringRef", align 8
  %15 = alloca %"class.llvm::MDTupleTypedArrayWrapper.117", align 8
  %16 = alloca ptr, align 8
  %17 = alloca ptr, align 8
  %18 = alloca ptr, align 8
  %19 = alloca i32, align 4
  %20 = alloca ptr, align 8
  %21 = alloca i32, align 4
  %22 = alloca ptr, align 8
  %23 = alloca i8, align 1
  %24 = alloca i32, align 4
  %25 = alloca i32, align 4
  %26 = alloca ptr, align 8
  %27 = alloca ptr, align 8
  %28 = alloca %"class.llvm::StringRef", align 8
  %29 = alloca %"class.llvm::MDTupleTypedArrayWrapper.117", align 8
  %30 = getelementptr inbounds nuw { ptr, i64 }, ptr %14, i32 0, i32 0
  store ptr %3, ptr %30, align 8
  %31 = getelementptr inbounds nuw { ptr, i64 }, ptr %14, i32 0, i32 1
  store i64 %4, ptr %31, align 8
  %32 = getelementptr inbounds nuw %"class.llvm::MDTupleTypedArrayWrapper.117", ptr %15, i32 0, i32 0
  %33 = inttoptr i64 %12 to ptr
  store ptr %33, ptr %32, align 8
  store ptr %0, ptr %16, align 8
  store ptr %1, ptr %17, align 8
  store ptr %2, ptr %18, align 8
  store i32 %5, ptr %19, align 4
  store ptr %6, ptr %20, align 8
  store i32 %7, ptr %21, align 4
  store ptr %8, ptr %22, align 8
  %34 = zext i1 %9 to i8
  store i8 %34, ptr %23, align 1
  store i32 %10, ptr %24, align 4
  store i32 %11, ptr %25, align 4
  %35 = load ptr, ptr %18, align 8
  %36 = call noundef ptr @_ZN4llvm4castINS_12DILocalScopeENS_7DIScopeEEEDcPT0_(ptr noundef %35)
  store ptr %36, ptr %26, align 8
  %37 = load ptr, ptr %16, align 8
  %38 = load ptr, ptr %26, align 8
  call void @llvm.memcpy.p0.p0.i64(ptr align 8 %28, ptr align 8 %14, i64 16, i1 false)
  %39 = load ptr, ptr %20, align 8
  %40 = load i32, ptr %21, align 4
  %41 = load ptr, ptr %22, align 8
  %42 = load i32, ptr %19, align 4
  %43 = load i32, ptr %24, align 4
  %44 = load i32, ptr %25, align 4
  call void @llvm.memcpy.p0.p0.i64(ptr align 8 %29, ptr align 8 %15, i64 8, i1 false)
  %45 = getelementptr inbounds nuw { ptr, i64 }, ptr %28, i32 0, i32 0
  %46 = load ptr, ptr %45, align 8
  %47 = getelementptr inbounds nuw { ptr, i64 }, ptr %28, i32 0, i32 1
  %48 = load i64, ptr %47, align 8
  %49 = getelementptr inbounds nuw %"class.llvm::MDTupleTypedArrayWrapper.117", ptr %29, i32 0, i32 0
  %50 = load ptr, ptr %49, align 8
  %51 = ptrtoint ptr %50 to i64
  %52 = call noundef ptr @_ZN4llvm15DILocalVariable3getERNS_11LLVMContextEPNS_12DILocalScopeENS_9StringRefEPNS_6DIFileEjPNS_6DITypeEjNS_6DINode7DIFlagsEjNS_24MDTupleTypedArrayWrapperISA_EE(ptr noundef nonnull align 8 dereferenceable(8) %37, ptr noundef %38, ptr %46, i64 %48, ptr noundef %39, i32 noundef %40, ptr noundef %41, i32 noundef %42, i32 noundef %43, i32 noundef %44, i64 %51)
  store ptr %52, ptr %27, align 8
  %53 = load i8, ptr %23, align 1
  %54 = trunc i8 %53 to i1
  br i1 %54, label %55, label %58

55:                                               ; preds = %13
  %56 = load ptr, ptr %17, align 8
  %57 = call noundef nonnull align 8 dereferenceable(8) ptr @_ZN4llvm15SmallVectorImplINS_18TypedTrackingMDRefINS_6MDNodeEEEE12emplace_backIJRPNS_15DILocalVariableEEEERS3_DpOT_(ptr noundef nonnull align 8 dereferenceable(16) %56, ptr noundef nonnull align 8 dereferenceable(8) %27)
  br label %58

58:                                               ; preds = %55, %13
  %59 = load ptr, ptr %27, align 8
  ret ptr %59
}

; Function Attrs: mustprogress nounwind uwtable
define linkonce_odr hidden void @_ZN4llvm24MDTupleTypedArrayWrapperINS_6DINodeEEC2EPKNS_7MDTupleE(ptr noundef nonnull align 8 dereferenceable(8) %0, ptr noundef %1) unnamed_addr #0 comdat align 2 {
  %3 = alloca ptr, align 8
  %4 = alloca ptr, align 8
  store ptr %0, ptr %3, align 8
  store ptr %1, ptr %4, align 8
  %5 = load ptr, ptr %3, align 8
  %6 = getelementptr inbounds nuw %"class.llvm::MDTupleTypedArrayWrapper.117", ptr %5, i32 0, i32 0
  %7 = load ptr, ptr %4, align 8
  store ptr %7, ptr %6, align 8
  ret void
}

; Function Attrs: mustprogress nounwind uwtable
define dso_local noundef ptr @_ZN4llvm9DIBuilder18createAutoVariableEPNS_7DIScopeENS_9StringRefEPNS_6DIFileEjPNS_6DITypeEbNS_6DINode7DIFlagsEj(ptr noundef nonnull align 8 dereferenceable(416) %0, ptr noundef %1, ptr %2, i64 %3, ptr noundef %4, i32 noundef %5, ptr noundef %6, i1 noundef zeroext %7, i32 noundef %8, i32 noundef %9) #0 align 2 {
  %11 = alloca %"class.llvm::StringRef", align 8
  %12 = alloca ptr, align 8
  %13 = alloca ptr, align 8
  %14 = alloca ptr, align 8
  %15 = alloca i32, align 4
  %16 = alloca ptr, align 8
  %17 = alloca i8, align 1
  %18 = alloca i32, align 4
  %19 = alloca i32, align 4
  %20 = alloca %"class.llvm::StringRef", align 8
  %21 = alloca %"class.llvm::MDTupleTypedArrayWrapper.117", align 8
  %22 = getelementptr inbounds nuw { ptr, i64 }, ptr %11, i32 0, i32 0
  store ptr %2, ptr %22, align 8
  %23 = getelementptr inbounds nuw { ptr, i64 }, ptr %11, i32 0, i32 1
  store i64 %3, ptr %23, align 8
  store ptr %0, ptr %12, align 8
  store ptr %1, ptr %13, align 8
  store ptr %4, ptr %14, align 8
  store i32 %5, ptr %15, align 4
  store ptr %6, ptr %16, align 8
  %24 = zext i1 %7 to i8
  store i8 %24, ptr %17, align 1
  store i32 %8, ptr %18, align 4
  store i32 %9, ptr %19, align 4
  %25 = load ptr, ptr %12, align 8
  %26 = getelementptr inbounds nuw %"class.llvm::DIBuilder", ptr %25, i32 0, i32 1
  %27 = load ptr, ptr %26, align 8
  %28 = load ptr, ptr %13, align 8
  %29 = call noundef nonnull align 8 dereferenceable(16) ptr @_ZN4llvm9DIBuilder32getSubprogramNodesTrackingVectorEPKNS_7DIScopeE(ptr noundef nonnull align 8 dereferenceable(416) %25, ptr noundef %28)
  %30 = load ptr, ptr %13, align 8
  call void @llvm.memcpy.p0.p0.i64(ptr align 8 %20, ptr align 8 %11, i64 16, i1 false)
  %31 = load ptr, ptr %14, align 8
  %32 = load i32, ptr %15, align 4
  %33 = load ptr, ptr %16, align 8
  %34 = load i8, ptr %17, align 1
  %35 = trunc i8 %34 to i1
  %36 = load i32, ptr %18, align 4
  %37 = load i32, ptr %19, align 4
  call void @_ZN4llvm24MDTupleTypedArrayWrapperINS_6DINodeEEC2EPKNS_7MDTupleE(ptr noundef nonnull align 8 dereferenceable(8) %21, ptr noundef null)
  %38 = getelementptr inbounds nuw { ptr, i64 }, ptr %20, i32 0, i32 0
  %39 = load ptr, ptr %38, align 8
  %40 = getelementptr inbounds nuw { ptr, i64 }, ptr %20, i32 0, i32 1
  %41 = load i64, ptr %40, align 8
  %42 = getelementptr inbounds nuw %"class.llvm::MDTupleTypedArrayWrapper.117", ptr %21, i32 0, i32 0
  %43 = load ptr, ptr %42, align 8
  %44 = ptrtoint ptr %43 to i64
  %45 = call noundef ptr @_ZL19createLocalVariableRN4llvm11LLVMContextERNS_15SmallVectorImplINS_18TypedTrackingMDRefINS_6MDNodeEEEEEPNS_7DIScopeENS_9StringRefEjPNS_6DIFileEjPNS_6DITypeEbNS_6DINode7DIFlagsEjNS_24MDTupleTypedArrayWrapperISF_EE(ptr noundef nonnull align 8 dereferenceable(8) %27, ptr noundef nonnull align 8 dereferenceable(16) %29, ptr noundef %30, ptr %39, i64 %41, i32 noundef 0, ptr noundef %31, i32 noundef %32, ptr noundef %33, i1 noundef zeroext %35, i32 noundef %36, i32 noundef %37, i64 %44)
  ret ptr %45
}