; Function Attrs: mustprogress nounwind uwtable
define dso_local noundef ptr @_ZN4llvm9DIBuilder18createAutoVariableEPNS_7DIScopeENS_9StringRefEPNS_6DIFileEjPNS_6DITypeEbNS_6DINode7DIFlagsEj(ptr noundef nonnull align 8 dereferenceable(416) %0, ptr noundef %1, ptr %2, i64 %3, ptr noundef %4, i32 noundef %5, ptr noundef %6, i1 noundef zeroext %7, i32 noundef %8, i32 noundef %9) local_unnamed_addr #0 align 2 {
  %11 = alloca ptr, align 8
  %12 = getelementptr inbounds nuw i8, ptr %0, i64 8
  %13 = load ptr, ptr %12, align 8
  %14 = tail call noundef nonnull align 8 dereferenceable(16) ptr @_ZN4llvm9DIBuilder32getSubprogramNodesTrackingVectorEPKNS_7DIScopeE(ptr noundef nonnull align 8 dereferenceable(416) %0, ptr noundef %1)
  call void @llvm.lifetime.start.p0(i64 8, ptr nonnull %11)
  %15 = icmp eq i64 %3, 0
  br i1 %15, label %_ZN4llvm15DILocalVariable3getERNS_11LLVMContextEPNS_12DILocalScopeENS_9StringRefEPNS_6DIFileEjPNS_6DITypeEjNS_6DINode7DIFlagsEjNS_24MDTupleTypedArrayWrapperISA_EE.exit.i, label %16

16:                                               ; preds = %10
  %17 = tail call noundef ptr @_ZN4llvm8MDString3getERNS_11LLVMContextENS_9StringRefE(ptr noundef nonnull align 8 dereferenceable(8) %13, ptr %2, i64 %3) #13
  br label %_ZN4llvm15DILocalVariable3getERNS_11LLVMContextEPNS_12DILocalScopeENS_9StringRefEPNS_6DIFileEjPNS_6DITypeEjNS_6DINode7DIFlagsEjNS_24MDTupleTypedArrayWrapperISA_EE.exit.i

_ZN4llvm15DILocalVariable3getERNS_11LLVMContextEPNS_12DILocalScopeENS_9StringRefEPNS_6DIFileEjPNS_6DITypeEjNS_6DINode7DIFlagsEjNS_24MDTupleTypedArrayWrapperISA_EE.exit.i: ; preds = %16, %10
  %.0.i.i.i.i = phi ptr [ %17, %16 ], [ null, %10 ]
  %18 = tail call noundef ptr @_ZN4llvm15DILocalVariable7getImplERNS_11LLVMContextEPNS_8MetadataEPNS_8MDStringES4_jS4_jNS_6DINode7DIFlagsEjS4_NS3_11StorageTypeEb(ptr noundef nonnull align 8 dereferenceable(8) %13, ptr noundef %1, ptr noundef %.0.i.i.i.i, ptr noundef %4, i32 noundef %5, ptr noundef %6, i32 noundef 0, i32 noundef %8, i32 noundef %9, ptr noundef null, i32 noundef 0, i1 noundef zeroext true) #13
  store ptr %18, ptr %11, align 8
  br i1 %7, label %19, label %_ZL19createLocalVariableRN4llvm11LLVMContextERNS_15SmallVectorImplINS_18TypedTrackingMDRefINS_6MDNodeEEEEEPNS_7DIScopeENS_9StringRefEjPNS_6DIFileEjPNS_6DITypeEbNS_6DINode7DIFlagsEjNS_24MDTupleTypedArrayWrapperISF_EE.exit

19:                                               ; preds = %_ZN4llvm15DILocalVariable3getERNS_11LLVMContextEPNS_12DILocalScopeENS_9StringRefEPNS_6DIFileEjPNS_6DITypeEjNS_6DINode7DIFlagsEjNS_24MDTupleTypedArrayWrapperISA_EE.exit.i
  %20 = call noundef nonnull align 8 dereferenceable(8) ptr @_ZN4llvm15SmallVectorImplINS_18TypedTrackingMDRefINS_6MDNodeEEEE12emplace_backIJRPNS_15DILocalVariableEEEERS3_DpOT_(ptr noundef nonnull align 8 dereferenceable(16) %14, ptr noundef nonnull align 8 dereferenceable(8) %11)
  %.pre.i = load ptr, ptr %11, align 8
  br label %_ZL19createLocalVariableRN4llvm11LLVMContextERNS_15SmallVectorImplINS_18TypedTrackingMDRefINS_6MDNodeEEEEEPNS_7DIScopeENS_9StringRefEjPNS_6DIFileEjPNS_6DITypeEbNS_6DINode7DIFlagsEjNS_24MDTupleTypedArrayWrapperISF_EE.exit

_ZL19createLocalVariableRN4llvm11LLVMContextERNS_15SmallVectorImplINS_18TypedTrackingMDRefINS_6MDNodeEEEEEPNS_7DIScopeENS_9StringRefEjPNS_6DIFileEjPNS_6DITypeEbNS_6DINode7DIFlagsEjNS_24MDTupleTypedArrayWrapperISF_EE.exit: ; preds = %_ZN4llvm15DILocalVariable3getERNS_11LLVMContextEPNS_12DILocalScopeENS_9StringRefEPNS_6DIFileEjPNS_6DITypeEjNS_6DINode7DIFlagsEjNS_24MDTupleTypedArrayWrapperISA_EE.exit.i, %19
  %21 = phi ptr [ %.pre.i, %19 ], [ %18, %_ZN4llvm15DILocalVariable3getERNS_11LLVMContextEPNS_12DILocalScopeENS_9StringRefEPNS_6DIFileEjPNS_6DITypeEjNS_6DINode7DIFlagsEjNS_24MDTupleTypedArrayWrapperISA_EE.exit.i ]
  call void @llvm.lifetime.end.p0(i64 8, ptr nonnull %11)
  ret ptr %21
}